; Function Attrs: mustprogress nofree norecurse nosync nounwind willreturn memory(read, argmem: readwrite, inaccessiblemem: none) uwtable
define internal noundef range(i32 -1, 65536) i32 @_ZL18stringIteratorNextP13UCharIterator(ptr noundef captures(none) %0) #9 {
  %2 = getelementptr inbounds nuw i8, ptr %0, i64 16
  %3 = load i32, ptr %2, align 8, !tbaa !28
  %4 = getelementptr inbounds nuw i8, ptr %0, i64 20
  %5 = load i32, ptr %4, align 4, !tbaa !13
  %6 = icmp slt i32 %3, %5
  br i1 %6, label %7, label %14

7:                                                ; preds = %1
  %8 = load ptr, ptr %0, align 8, !tbaa !10
  %9 = add nsw i32 %3, 1
  store i32 %9, ptr %2, align 8, !tbaa !28
  %10 = sext i32 %3 to i64
  %11 = getelementptr inbounds i16, ptr %8, i64 %10
  %12 = load i16, ptr %11, align 2, !tbaa !29
  %13 = zext i16 %12 to i32
  br label %14

14:                                               ; preds = %1, %7
  %.0 = phi i32 [ %13, %7 ], [ -1, %1 ]
  ret i32 %.0
}